target datalayout = "e-m:e-p270:32:32-p271:32:32-p272:64:64-i64:64-i128:128-f80:128-n8:16:32:64-S128"
target triple = "x86_64-pc-linux-gnu"

%class.JfrAdaptiveSampler = type <{ ptr, %class.JfrPRNG, ptr, ptr, ptr, double, double, i64, i64, i32, [4 x i8] }>
%class.JfrPRNG = type { i64 }

@_ZN16JfrSamplerWindowC1Ev = hidden unnamed_addr alias void (ptr), ptr @_ZN16JfrSamplerWindowC2Ev

; Function Attrs: mustprogress nounwind uwtable
define hidden noundef zeroext i1 @_ZN18JfrAdaptiveSampler10initializeEv(ptr noundef nonnull align 8 dereferenceable(76) %0) unnamed_addr #1 align 2 {
  %2 = alloca i1, align 1
  %3 = alloca ptr, align 8
  store ptr %0, ptr %3, align 8
  %4 = load ptr, ptr %3, align 8
  %5 = call noundef ptr @_ZN11JfrCHeapObjnwEm(i64 noundef 64) #9
  %6 = icmp eq ptr %5, null
  br i1 %6, label %8, label %7

7:                                                ; preds = %1
  call void @_ZN16JfrSamplerWindowC1Ev(ptr noundef nonnull align 8 dereferenceable(64) %5)
  br label %8

8:                                                ; preds = %7, %1
  %9 = phi ptr [ %5, %7 ], [ null, %1 ]
  %10 = getelementptr inbounds %class.JfrAdaptiveSampler, ptr %4, i32 0, i32 2
  store ptr %9, ptr %10, align 8
  %11 = getelementptr inbounds %class.JfrAdaptiveSampler, ptr %4, i32 0, i32 2
  %12 = load ptr, ptr %11, align 8
  %13 = icmp eq ptr %12, null
  br i1 %13, label %14, label %15

14:                                               ; preds = %8
  store i1 false, ptr %2, align 1
  br label %30

15:                                               ; preds = %8
  %16 = call noundef ptr @_ZN11JfrCHeapObjnwEm(i64 noundef 64) #9
  %17 = icmp eq ptr %16, null
  br i1 %17, label %19, label %18

18:                                               ; preds = %15
  call void @_ZN16JfrSamplerWindowC1Ev(ptr noundef nonnull align 8 dereferenceable(64) %16)
  br label %19

19:                                               ; preds = %18, %15
  %20 = phi ptr [ %16, %18 ], [ null, %15 ]
  %21 = getelementptr inbounds %class.JfrAdaptiveSampler, ptr %4, i32 0, i32 3
  store ptr %20, ptr %21, align 8
  %22 = getelementptr inbounds %class.JfrAdaptiveSampler, ptr %4, i32 0, i32 3
  %23 = load ptr, ptr %22, align 8
  %24 = icmp eq ptr %23, null
  br i1 %24, label %25, label %26

25:                                               ; preds = %19
  store i1 false, ptr %2, align 1
  br label %30

26:                                               ; preds = %19
  %27 = getelementptr inbounds %class.JfrAdaptiveSampler, ptr %4, i32 0, i32 2
  %28 = load ptr, ptr %27, align 8
  %29 = getelementptr inbounds %class.JfrAdaptiveSampler, ptr %4, i32 0, i32 4
  store ptr %28, ptr %29, align 8
  store i1 true, ptr %2, align 1
  br label %30

30:                                               ; preds = %26, %25, %14
  %31 = load i1, ptr %2, align 1
  ret i1 %31
}