; Function Attrs: mustprogress nounwind uwtable
define hidden noundef zeroext i1 @_ZN18JfrAdaptiveSampler10initializeEv(ptr nocapture noundef nonnull align 8 dereferenceable(76) %0) unnamed_addr #2 align 2 {
  %2 = tail call noundef ptr @_ZN11JfrCHeapObjnwEm(i64 noundef 64) #16
  %3 = icmp eq ptr %2, null
  br i1 %3, label %.thread, label %4

4:                                                ; preds = %1
  tail call void @llvm.memset.p0.i64(ptr noundef nonnull align 8 dereferenceable(32) %2, i8 0, i64 32, i1 false)
  %5 = getelementptr inbounds i8, ptr %2, i64 32
  store volatile i64 0, ptr %5, align 8
  %6 = getelementptr inbounds i8, ptr %2, i64 40
  store i64 1, ptr %6, align 8
  %7 = getelementptr inbounds i8, ptr %2, i64 48
  store i64 0, ptr %7, align 8
  %8 = getelementptr inbounds i8, ptr %2, i64 56
  store volatile i64 0, ptr %8, align 8
  %9 = getelementptr inbounds i8, ptr %0, i64 16
  store ptr %2, ptr %9, align 8
  %10 = tail call noundef ptr @_ZN11JfrCHeapObjnwEm(i64 noundef 64) #16
  %11 = icmp eq ptr %10, null
  br i1 %11, label %.thread, label %12

12:                                               ; preds = %4
  tail call void @llvm.memset.p0.i64(ptr noundef nonnull align 8 dereferenceable(32) %10, i8 0, i64 32, i1 false)
  %13 = getelementptr inbounds i8, ptr %10, i64 32
  store volatile i64 0, ptr %13, align 8
  %14 = getelementptr inbounds i8, ptr %10, i64 40
  store i64 1, ptr %14, align 8
  %15 = getelementptr inbounds i8, ptr %10, i64 48
  store i64 0, ptr %15, align 8
  %16 = getelementptr inbounds i8, ptr %10, i64 56
  store volatile i64 0, ptr %16, align 8
  %17 = getelementptr inbounds i8, ptr %0, i64 24
  store ptr %10, ptr %17, align 8
  %18 = load ptr, ptr %9, align 8
  br label %.thread

.thread:                                          ; preds = %4, %1, %12
  %.sink6 = phi i64 [ 32, %12 ], [ 16, %1 ], [ 24, %4 ]
  %.sink = phi ptr [ %18, %12 ], [ null, %1 ], [ null, %4 ]
  %.0 = phi i1 [ true, %12 ], [ false, %1 ], [ false, %4 ]
  %19 = getelementptr inbounds i8, ptr %0, i64 %.sink6
  store ptr %.sink, ptr %19, align 8
  ret i1 %.0
}